target datalayout = "e-m:e-p270:32:32-p271:32:32-p272:64:64-i64:64-i128:128-f80:128-n8:16:32:64-S128"
target triple = "x86_64-pc-linux-gnu"

%"class.lean::equiv_manager" = type <{ %"class.std::vector", %"class.std::unordered_map", i8, [7 x i8] }>
%"class.std::vector" = type { %"struct.std::_Vector_base" }
%"struct.std::_Vector_base" = type { %"struct.std::_Vector_base<lean::equiv_manager::node, std::allocator<lean::equiv_manager::node>>::_Vector_impl" }
%"struct.std::_Vector_base<lean::equiv_manager::node, std::allocator<lean::equiv_manager::node>>::_Vector_impl" = type { %"struct.std::_Vector_base<lean::equiv_manager::node, std::allocator<lean::equiv_manager::node>>::_Vector_impl_data" }
%"struct.std::_Vector_base<lean::equiv_manager::node, std::allocator<lean::equiv_manager::node>>::_Vector_impl_data" = type { ptr, ptr, ptr }
%"class.std::unordered_map" = type { %"class.std::_Hashtable" }
%"class.std::_Hashtable" = type { ptr, i64, %"struct.std::__detail::_Hash_node_base", i64, %"struct.std::__detail::_Prime_rehash_policy", ptr }
%"struct.std::__detail::_Hash_node_base" = type { ptr }
%"struct.std::__detail::_Prime_rehash_policy" = type { float, i64 }
%"class.lean::flet" = type <{ ptr, i8, [7 x i8] }>

; Function Attrs: mustprogress nounwind uwtable
define linkonce_odr hidden void @_ZN4lean4fletIbED2Ev(ptr noundef nonnull align 8 dereferenceable(9) %0) unnamed_addr #2 comdat align 2 {
  %2 = alloca ptr, align 8
  store ptr %0, ptr %2, align 8, !tbaa !73
  %3 = load ptr, ptr %2, align 8
  %4 = getelementptr inbounds nuw %"class.lean::flet", ptr %3, i32 0, i32 1
  %5 = load i8, ptr %4, align 8, !tbaa !77, !range !58, !noundef !59
  %6 = trunc i8 %5 to i1
  %7 = getelementptr inbounds nuw %"class.lean::flet", ptr %3, i32 0, i32 0
  %8 = load ptr, ptr %7, align 8, !tbaa !79
  %9 = zext i1 %6 to i8
  store i8 %9, ptr %8, align 1, !tbaa !60
  ret void
}

; Function Attrs: mustprogress nounwind uwtable
define linkonce_odr hidden void @_ZN4lean4fletIbEC2ERbRKb(ptr noundef nonnull align 8 dereferenceable(9) %0, ptr noundef nonnull align 1 dereferenceable(1) %1, ptr noundef nonnull align 1 dereferenceable(1) %2) unnamed_addr #2 comdat align 2 {
  %4 = alloca ptr, align 8
  %5 = alloca ptr, align 8
  %6 = alloca ptr, align 8
  store ptr %0, ptr %4, align 8, !tbaa !73
  store ptr %1, ptr %5, align 8, !tbaa !75
  store ptr %2, ptr %6, align 8, !tbaa !75
  %7 = load ptr, ptr %4, align 8
  %8 = getelementptr inbounds nuw %"class.lean::flet", ptr %7, i32 0, i32 0
  %9 = load ptr, ptr %5, align 8, !tbaa !75
  store ptr %9, ptr %8, align 8, !tbaa !75
  %10 = getelementptr inbounds nuw %"class.lean::flet", ptr %7, i32 0, i32 1
  %11 = load ptr, ptr %5, align 8, !tbaa !75
  %12 = load i8, ptr %11, align 1, !tbaa !60, !range !58, !noundef !59
  %13 = trunc i8 %12 to i1
  %14 = zext i1 %13 to i8
  store i8 %14, ptr %10, align 8, !tbaa !77
  %15 = load ptr, ptr %6, align 8, !tbaa !75
  %16 = load i8, ptr %15, align 1, !tbaa !60, !range !58, !noundef !59
  %17 = trunc i8 %16 to i1
  %18 = getelementptr inbounds nuw %"class.lean::flet", ptr %7, i32 0, i32 0
  %19 = load ptr, ptr %18, align 8, !tbaa !79
  %20 = zext i1 %17 to i8
  store i8 %20, ptr %19, align 1, !tbaa !60
  ret void
}

; Function Attrs: mustprogress uwtable
define hidden noundef zeroext i1 @_ZN4lean13equiv_manager8is_equivERKNS_4exprES3_b(ptr noundef nonnull align 8 dereferenceable(81) %0, ptr noundef nonnull align 8 dereferenceable(8) %1, ptr noundef nonnull align 8 dereferenceable(8) %2, i1 noundef zeroext %3) #0 align 2 personality ptr @__gxx_personality_v0 {
  %5 = alloca ptr, align 8
  %6 = alloca ptr, align 8
  %7 = alloca ptr, align 8
  %8 = alloca i8, align 1
  %9 = alloca %"class.lean::flet", align 8
  %10 = alloca ptr, align 8
  %11 = alloca i32, align 4
  store ptr %0, ptr %5, align 8, !tbaa !3
  store ptr %1, ptr %6, align 8, !tbaa !25
  store ptr %2, ptr %7, align 8, !tbaa !25
  %12 = zext i1 %3 to i8
  store i8 %12, ptr %8, align 1, !tbaa !60
  %13 = load ptr, ptr %5, align 8
  call void @llvm.lifetime.start.p0(i64 16, ptr %9) #16
  %14 = getelementptr inbounds nuw %"class.lean::equiv_manager", ptr %13, i32 0, i32 2
  call void @_ZN4lean4fletIbEC2ERbRKb(ptr noundef nonnull align 8 dereferenceable(9) %9, ptr noundef nonnull align 1 dereferenceable(1) %14, ptr noundef nonnull align 1 dereferenceable(1) %8)
  %15 = load ptr, ptr %6, align 8, !tbaa !25
  %16 = load ptr, ptr %7, align 8, !tbaa !25
  %17 = invoke noundef zeroext i1 @_ZN4lean13equiv_manager13is_equiv_coreERKNS_4exprES3_(ptr noundef nonnull align 8 dereferenceable(81) %13, ptr noundef nonnull align 8 dereferenceable(8) %15, ptr noundef nonnull align 8 dereferenceable(8) %16)
          to label %18 unwind label %19

18:                                               ; preds = %4
  call void @_ZN4lean4fletIbED2Ev(ptr noundef nonnull align 8 dereferenceable(9) %9) #16
  call void @llvm.lifetime.end.p0(i64 16, ptr %9) #16
  ret i1 %17

19:                                               ; preds = %4
  %20 = landingpad { ptr, i32 }
          cleanup
  %21 = extractvalue { ptr, i32 } %20, 0
  store ptr %21, ptr %10, align 8
  %22 = extractvalue { ptr, i32 } %20, 1
  store i32 %22, ptr %11, align 4
  call void @_ZN4lean4fletIbED2Ev(ptr noundef nonnull align 8 dereferenceable(9) %9) #16
  call void @llvm.lifetime.end.p0(i64 16, ptr %9) #16
  br label %23

23:                                               ; preds = %19
  %24 = load ptr, ptr %10, align 8
  %25 = load i32, ptr %11, align 4
  %26 = insertvalue { ptr, i32 } poison, ptr %24, 0
  %27 = insertvalue { ptr, i32 } %26, i32 %25, 1
  resume { ptr, i32 } %27
}