; Function Attrs: mustprogress uwtable
define hidden noundef zeroext i1 @_ZN4lean13equiv_manager8is_equivERKNS_4exprES3_b(ptr noundef nonnull align 8 dereferenceable(81) %0, ptr noundef nonnull align 8 dereferenceable(8) %1, ptr noundef nonnull align 8 dereferenceable(8) %2, i1 noundef zeroext %3) local_unnamed_addr #0 align 2 personality ptr @__gxx_personality_v0 {
  %5 = zext i1 %3 to i8
  %6 = getelementptr inbounds nuw i8, ptr %0, i64 80
  %7 = load i8, ptr %6, align 8, !tbaa !77, !range !58, !noundef !59
  store i8 %5, ptr %6, align 8, !tbaa !77
  %8 = invoke noundef zeroext i1 @_ZN4lean13equiv_manager13is_equiv_coreERKNS_4exprES3_(ptr noundef nonnull align 8 dereferenceable(81) %0, ptr noundef nonnull align 8 dereferenceable(8) %1, ptr noundef nonnull align 8 dereferenceable(8) %2)
          to label %9 unwind label %10

9:                                                ; preds = %4
  store i8 %7, ptr %6, align 8, !tbaa !77
  ret i1 %8

10:                                               ; preds = %4
  %11 = landingpad { ptr, i32 }
          cleanup
  store i8 %7, ptr %6, align 8, !tbaa !77
  resume { ptr, i32 } %11
}